; Function Attrs: mustprogress uwtable
define internal noundef double @_ZN2cvL10dotProd_8sEPKaS1_i(ptr noundef readonly captures(none) %0, ptr noundef readonly captures(none) %1, i32 noundef %2) #3 personality ptr @__gxx_personality_v0 {
  %4 = alloca %"class.cv::utils::trace::details::Region", align 8
  call void @llvm.lifetime.start.p0(i64 16, ptr nonnull %4) #27
  call void @_ZN2cv5utils5trace7details6RegionC1ERKNS3_21LocationStaticStorageE(ptr noundef nonnull align 8 dereferenceable(12) %4, ptr noundef nonnull align 8 dereferenceable(32) @_ZZN2cvL10dotProd_8sEPKaS1_iE25__cv_trace_location_fn943)
  %5 = icmp sgt i32 %2, 0
  br i1 %5, label %.lr.ph.preheader.i.i, label %_ZN2cv12cpu_baseline10dotProd_8sEPKaS2_i.exit

.lr.ph.preheader.i.i:                             ; preds = %3
  %wide.trip.count.i.i = zext nneg i32 %2 to i64
  br label %.lr.ph.i.i

.lr.ph.i.i:                                       ; preds = %.lr.ph.i.i, %.lr.ph.preheader.i.i
  %indvars.iv.i.i = phi i64 [ 0, %.lr.ph.preheader.i.i ], [ %indvars.iv.next.i.i, %.lr.ph.i.i ]
  %.010.i.i = phi double [ 0.000000e+00, %.lr.ph.preheader.i.i ], [ %12, %.lr.ph.i.i ]
  %6 = getelementptr inbounds nuw i8, ptr %0, i64 %indvars.iv.i.i
  %7 = load i8, ptr %6, align 1, !tbaa !11
  %8 = sitofp i8 %7 to double
  %9 = getelementptr inbounds nuw i8, ptr %1, i64 %indvars.iv.i.i
  %10 = load i8, ptr %9, align 1, !tbaa !11
  %11 = sitofp i8 %10 to double
  %12 = call double @llvm.fmuladd.f64(double %8, double %11, double %.010.i.i)
  %indvars.iv.next.i.i = add nuw nsw i64 %indvars.iv.i.i, 1
  %exitcond.not.i.i = icmp eq i64 %indvars.iv.next.i.i, %wide.trip.count.i.i
  br i1 %exitcond.not.i.i, label %_ZN2cv12cpu_baselineL8dotProd_IaEEdPKT_S4_i.exit.loopexit.i, label %.lr.ph.i.i, !llvm.loop !367

_ZN2cv12cpu_baselineL8dotProd_IaEEdPKT_S4_i.exit.loopexit.i: ; preds = %.lr.ph.i.i
  %13 = fadd double %12, 0.000000e+00
  br label %_ZN2cv12cpu_baseline10dotProd_8sEPKaS2_i.exit

_ZN2cv12cpu_baseline10dotProd_8sEPKaS2_i.exit:    ; preds = %_ZN2cv12cpu_baselineL8dotProd_IaEEdPKT_S4_i.exit.loopexit.i, %3
  %.0.lcssa.i.i = phi double [ 0.000000e+00, %3 ], [ %13, %_ZN2cv12cpu_baselineL8dotProd_IaEEdPKT_S4_i.exit.loopexit.i ]
  %14 = getelementptr inbounds nuw i8, ptr %4, i64 8
  %15 = load i32, ptr %14, align 8, !tbaa !3
  %.not.i = icmp eq i32 %15, 0
  br i1 %.not.i, label %_ZN2cv5utils5trace7details6RegionD2Ev.exit, label %16

16:                                               ; preds = %_ZN2cv12cpu_baseline10dotProd_8sEPKaS2_i.exit
  invoke void @_ZN2cv5utils5trace7details6Region7destroyEv(ptr noundef nonnull align 8 dereferenceable(12) %4)
          to label %_ZN2cv5utils5trace7details6RegionD2Ev.exit unwind label %17

17:                                               ; preds = %16
  %18 = landingpad { ptr, i32 }
          catch ptr null
  %19 = extractvalue { ptr, i32 } %18, 0
  call void @__clang_call_terminate(ptr %19) #28
  unreachable

_ZN2cv5utils5trace7details6RegionD2Ev.exit:       ; preds = %_ZN2cv12cpu_baseline10dotProd_8sEPKaS2_i.exit, %16
  call void @llvm.lifetime.end.p0(i64 16, ptr nonnull %4) #27
  ret double %.0.lcssa.i.i
}